; Function Attrs: mustprogress uwtable
define internal noundef zeroext i1 @_ZL5acompRK17InteractionOfTypeS1_(ptr noundef nonnull align 8 dereferenceable(105) %0, ptr noundef nonnull align 8 dereferenceable(105) %1) #0 {
  %3 = tail call noundef nonnull align 4 dereferenceable(4) ptr @_ZNK17InteractionOfType2ajEv(ptr noundef nonnull align 8 dereferenceable(105) %0)
  %4 = load i32, ptr %3, align 4, !tbaa !39
  %5 = tail call noundef nonnull align 4 dereferenceable(4) ptr @_ZNK17InteractionOfType2ajEv(ptr noundef nonnull align 8 dereferenceable(105) %1)
  %6 = load i32, ptr %5, align 4, !tbaa !39
  %7 = sub nsw i32 %4, %6
  %.not = icmp eq i32 %7, 0
  br i1 %.not, label %8, label %14

8:                                                ; preds = %2
  %9 = tail call noundef nonnull align 4 dereferenceable(4) ptr @_ZNK17InteractionOfType2aiEv(ptr noundef nonnull align 8 dereferenceable(105) %0)
  %10 = load i32, ptr %9, align 4, !tbaa !39
  %11 = tail call noundef nonnull align 4 dereferenceable(4) ptr @_ZNK17InteractionOfType2aiEv(ptr noundef nonnull align 8 dereferenceable(105) %1)
  %12 = load i32, ptr %11, align 4, !tbaa !39
  %13 = sub nsw i32 %10, %12
  %.not10 = icmp eq i32 %13, 0
  br i1 %.not10, label %16, label %14

14:                                               ; preds = %8, %2
  %.0 = phi i32 [ %7, %2 ], [ %13, %8 ]
  %15 = icmp slt i32 %.0, 0
  br label %22

16:                                               ; preds = %8
  %17 = tail call noundef nonnull align 4 dereferenceable(4) ptr @_ZNK17InteractionOfType2akEv(ptr noundef nonnull align 8 dereferenceable(105) %0)
  %18 = load i32, ptr %17, align 4, !tbaa !39
  %19 = tail call noundef nonnull align 4 dereferenceable(4) ptr @_ZNK17InteractionOfType2akEv(ptr noundef nonnull align 8 dereferenceable(105) %1)
  %20 = load i32, ptr %19, align 4, !tbaa !39
  %21 = icmp slt i32 %18, %20
  br label %22

22:                                               ; preds = %16, %14
  %.07 = phi i1 [ %15, %14 ], [ %21, %16 ]
  ret i1 %.07
}